; Function Attrs: mustprogress uwtable
define void @_ZNK17ExtraMeshIOPlugin20initPreOpenParameterERK7QString(ptr dead_on_unwind noalias nonnull writable sret(%class.RichParameterList) align 8 %0, ptr nocapture nonnull readnone align 8 %1, ptr noundef nonnull align 8 dereferenceable(8) %2) unnamed_addr #9 align 2 personality ptr @__gxx_personality_v0 {
  %4 = alloca %class.QString, align 8
  %5 = alloca %class.QString, align 8
  %6 = alloca %class.RichBool, align 8
  %7 = alloca %class.QString, align 8
  %8 = alloca %class.QString, align 8
  %9 = alloca %class.QString, align 8
  %10 = alloca %class.QString, align 8
  tail call void @_ZN17RichParameterListC1Ev(ptr noundef nonnull align 8 dereferenceable(24) %0)
  invoke void @_ZN7QString14toUpper_helperERKS_(ptr dead_on_unwind nonnull writable sret(%class.QString) align 8 %4, ptr noundef nonnull align 8 dereferenceable(8) %2)
          to label %_ZNKR7QString7toUpperEv.exit unwind label %46

_ZNKR7QString7toUpperEv.exit:                     ; preds = %3
  invoke void @_ZNK11QMetaObject2trEPKcS1_i(ptr dead_on_unwind nonnull writable sret(%class.QString) align 8 %5, ptr noundef nonnull align 8 dereferenceable(48) @_ZN17ExtraMeshIOPlugin16staticMetaObjectE, ptr noundef nonnull @.str.10, ptr noundef null, i32 noundef -1)
          to label %_ZN17ExtraMeshIOPlugin2trEPKcS1_i.exit unwind label %48

_ZN17ExtraMeshIOPlugin2trEPKcS1_i.exit:           ; preds = %_ZNKR7QString7toUpperEv.exit
  %11 = call noundef zeroext i1 @_ZeqRK7QStringS1_(ptr noundef nonnull align 8 dereferenceable(8) %4, ptr noundef nonnull align 8 dereferenceable(8) %5) #25
  %12 = load ptr, ptr %5, align 8
  %13 = load atomic i32, ptr %12 monotonic, align 4
  switch i32 %13, label %_ZN9QtPrivate8RefCount5derefEv.exit.i [
    i32 0, label %_ZN9QtPrivate8RefCount5derefEv.exit.thread2.i
    i32 -1, label %_ZN7QStringD2Ev.exit
  ]

_ZN9QtPrivate8RefCount5derefEv.exit.i:            ; preds = %_ZN17ExtraMeshIOPlugin2trEPKcS1_i.exit
  %14 = atomicrmw sub ptr %12, i32 1 seq_cst, align 4
  %.not.i = icmp eq i32 %14, 1
  br i1 %.not.i, label %_ZN9QtPrivate8RefCount5derefEv.exit._ZN9QtPrivate8RefCount5derefEv.exit.thread2_crit_edge.i, label %_ZN7QStringD2Ev.exit

_ZN9QtPrivate8RefCount5derefEv.exit._ZN9QtPrivate8RefCount5derefEv.exit.thread2_crit_edge.i: ; preds = %_ZN9QtPrivate8RefCount5derefEv.exit.i
  %.pre.i = load ptr, ptr %5, align 8
  br label %_ZN9QtPrivate8RefCount5derefEv.exit.thread2.i

_ZN9QtPrivate8RefCount5derefEv.exit.thread2.i:    ; preds = %_ZN9QtPrivate8RefCount5derefEv.exit._ZN9QtPrivate8RefCount5derefEv.exit.thread2_crit_edge.i, %_ZN17ExtraMeshIOPlugin2trEPKcS1_i.exit
  %15 = phi ptr [ %.pre.i, %_ZN9QtPrivate8RefCount5derefEv.exit._ZN9QtPrivate8RefCount5derefEv.exit.thread2_crit_edge.i ], [ %12, %_ZN17ExtraMeshIOPlugin2trEPKcS1_i.exit ]
  call void @_ZN10QArrayData10deallocateEPS_mm(ptr noundef %15, i64 noundef 2, i64 noundef 8) #25
  br label %_ZN7QStringD2Ev.exit

_ZN7QStringD2Ev.exit:                             ; preds = %_ZN17ExtraMeshIOPlugin2trEPKcS1_i.exit, %_ZN9QtPrivate8RefCount5derefEv.exit.i, %_ZN9QtPrivate8RefCount5derefEv.exit.thread2.i
  %16 = load ptr, ptr %4, align 8
  %17 = load atomic i32, ptr %16 monotonic, align 4
  switch i32 %17, label %_ZN9QtPrivate8RefCount5derefEv.exit.i12 [
    i32 0, label %_ZN9QtPrivate8RefCount5derefEv.exit.thread2.i11
    i32 -1, label %_ZN7QStringD2Ev.exit16
  ]

_ZN9QtPrivate8RefCount5derefEv.exit.i12:          ; preds = %_ZN7QStringD2Ev.exit
  %18 = atomicrmw sub ptr %16, i32 1 seq_cst, align 4
  %.not.i13 = icmp eq i32 %18, 1
  br i1 %.not.i13, label %_ZN9QtPrivate8RefCount5derefEv.exit._ZN9QtPrivate8RefCount5derefEv.exit.thread2_crit_edge.i14, label %_ZN7QStringD2Ev.exit16

_ZN9QtPrivate8RefCount5derefEv.exit._ZN9QtPrivate8RefCount5derefEv.exit.thread2_crit_edge.i14: ; preds = %_ZN9QtPrivate8RefCount5derefEv.exit.i12
  %.pre.i15 = load ptr, ptr %4, align 8
  br label %_ZN9QtPrivate8RefCount5derefEv.exit.thread2.i11

_ZN9QtPrivate8RefCount5derefEv.exit.thread2.i11:  ; preds = %_ZN9QtPrivate8RefCount5derefEv.exit._ZN9QtPrivate8RefCount5derefEv.exit.thread2_crit_edge.i14, %_ZN7QStringD2Ev.exit
  %19 = phi ptr [ %.pre.i15, %_ZN9QtPrivate8RefCount5derefEv.exit._ZN9QtPrivate8RefCount5derefEv.exit.thread2_crit_edge.i14 ], [ %16, %_ZN7QStringD2Ev.exit ]
  call void @_ZN10QArrayData10deallocateEPS_mm(ptr noundef %19, i64 noundef 2, i64 noundef 8) #25
  br label %_ZN7QStringD2Ev.exit16

_ZN7QStringD2Ev.exit16:                           ; preds = %_ZN7QStringD2Ev.exit, %_ZN9QtPrivate8RefCount5derefEv.exit.i12, %_ZN9QtPrivate8RefCount5derefEv.exit.thread2.i11
  br i1 %11, label %20, label %_ZN7QStringD2Ev.exit42

20:                                               ; preds = %_ZN7QStringD2Ev.exit16
  %21 = invoke noundef ptr @_ZN7QString16fromAscii_helperEPKci(ptr noundef nonnull @.str.11, i32 noundef 22)
          to label %22 unwind label %46

22:                                               ; preds = %20
  store ptr %21, ptr %7, align 8
  %23 = invoke noundef ptr @_ZN7QString16fromAscii_helperEPKci(ptr noundef nonnull @.str.12, i32 noundef 22)
          to label %24 unwind label %50

24:                                               ; preds = %22
  store ptr %23, ptr %8, align 8
  %25 = invoke noundef ptr @_ZN7QString16fromAscii_helperEPKci(ptr noundef nonnull @.str.13, i32 noundef 146)
          to label %26 unwind label %52

26:                                               ; preds = %24
  store ptr %25, ptr %9, align 8
  store ptr @_ZN10QArrayData11shared_nullE, ptr %10, align 8
  invoke void @_ZN8RichBoolC1ERK7QStringbS2_S2_bS2_(ptr noundef nonnull align 8 dereferenceable(56) %6, ptr noundef nonnull align 8 dereferenceable(8) %7, i1 noundef zeroext false, ptr noundef nonnull align 8 dereferenceable(8) %8, ptr noundef nonnull align 8 dereferenceable(8) %9, i1 noundef zeroext false, ptr noundef nonnull align 8 dereferenceable(8) %10)
          to label %27 unwind label %54

27:                                               ; preds = %26
  %28 = invoke noundef nonnull align 8 dereferenceable(56) ptr @_ZN17RichParameterList8addParamERK13RichParameter(ptr noundef nonnull align 8 dereferenceable(24) %0, ptr noundef nonnull align 8 dereferenceable(56) %6)
          to label %29 unwind label %56

29:                                               ; preds = %27
  call void @_ZN8RichBoolD1Ev(ptr noundef nonnull align 8 dereferenceable(56) %6) #25
  %30 = load ptr, ptr %10, align 8
  %31 = load atomic i32, ptr %30 monotonic, align 4
  switch i32 %31, label %_ZN9QtPrivate8RefCount5derefEv.exit.i20 [
    i32 0, label %_ZN9QtPrivate8RefCount5derefEv.exit.thread2.i19
    i32 -1, label %_ZN7QStringD2Ev.exit24
  ]

_ZN9QtPrivate8RefCount5derefEv.exit.i20:          ; preds = %29
  %32 = atomicrmw sub ptr %30, i32 1 seq_cst, align 4
  %.not.i21 = icmp eq i32 %32, 1
  br i1 %.not.i21, label %_ZN9QtPrivate8RefCount5derefEv.exit._ZN9QtPrivate8RefCount5derefEv.exit.thread2_crit_edge.i22, label %_ZN7QStringD2Ev.exit24

_ZN9QtPrivate8RefCount5derefEv.exit._ZN9QtPrivate8RefCount5derefEv.exit.thread2_crit_edge.i22: ; preds = %_ZN9QtPrivate8RefCount5derefEv.exit.i20
  %.pre.i23 = load ptr, ptr %10, align 8
  br label %_ZN9QtPrivate8RefCount5derefEv.exit.thread2.i19

_ZN9QtPrivate8RefCount5derefEv.exit.thread2.i19:  ; preds = %_ZN9QtPrivate8RefCount5derefEv.exit._ZN9QtPrivate8RefCount5derefEv.exit.thread2_crit_edge.i22, %29
  %33 = phi ptr [ %.pre.i23, %_ZN9QtPrivate8RefCount5derefEv.exit._ZN9QtPrivate8RefCount5derefEv.exit.thread2_crit_edge.i22 ], [ %30, %29 ]
  call void @_ZN10QArrayData10deallocateEPS_mm(ptr noundef %33, i64 noundef 2, i64 noundef 8) #25
  br label %_ZN7QStringD2Ev.exit24

_ZN7QStringD2Ev.exit24:                           ; preds = %29, %_ZN9QtPrivate8RefCount5derefEv.exit.i20, %_ZN9QtPrivate8RefCount5derefEv.exit.thread2.i19
  %34 = load ptr, ptr %9, align 8
  %35 = load atomic i32, ptr %34 monotonic, align 4
  switch i32 %35, label %_ZN9QtPrivate8RefCount5derefEv.exit.i26 [
    i32 0, label %_ZN9QtPrivate8RefCount5derefEv.exit.thread2.i25
    i32 -1, label %_ZN7QStringD2Ev.exit30
  ]

_ZN9QtPrivate8RefCount5derefEv.exit.i26:          ; preds = %_ZN7QStringD2Ev.exit24
  %36 = atomicrmw sub ptr %34, i32 1 seq_cst, align 4
  %.not.i27 = icmp eq i32 %36, 1
  br i1 %.not.i27, label %_ZN9QtPrivate8RefCount5derefEv.exit._ZN9QtPrivate8RefCount5derefEv.exit.thread2_crit_edge.i28, label %_ZN7QStringD2Ev.exit30

_ZN9QtPrivate8RefCount5derefEv.exit._ZN9QtPrivate8RefCount5derefEv.exit.thread2_crit_edge.i28: ; preds = %_ZN9QtPrivate8RefCount5derefEv.exit.i26
  %.pre.i29 = load ptr, ptr %9, align 8
  br label %_ZN9QtPrivate8RefCount5derefEv.exit.thread2.i25

_ZN9QtPrivate8RefCount5derefEv.exit.thread2.i25:  ; preds = %_ZN9QtPrivate8RefCount5derefEv.exit._ZN9QtPrivate8RefCount5derefEv.exit.thread2_crit_edge.i28, %_ZN7QStringD2Ev.exit24
  %37 = phi ptr [ %.pre.i29, %_ZN9QtPrivate8RefCount5derefEv.exit._ZN9QtPrivate8RefCount5derefEv.exit.thread2_crit_edge.i28 ], [ %34, %_ZN7QStringD2Ev.exit24 ]
  call void @_ZN10QArrayData10deallocateEPS_mm(ptr noundef %37, i64 noundef 2, i64 noundef 8) #25
  br label %_ZN7QStringD2Ev.exit30

_ZN7QStringD2Ev.exit30:                           ; preds = %_ZN7QStringD2Ev.exit24, %_ZN9QtPrivate8RefCount5derefEv.exit.i26, %_ZN9QtPrivate8RefCount5derefEv.exit.thread2.i25
  %38 = load ptr, ptr %8, align 8
  %39 = load atomic i32, ptr %38 monotonic, align 4
  switch i32 %39, label %_ZN9QtPrivate8RefCount5derefEv.exit.i32 [
    i32 0, label %_ZN9QtPrivate8RefCount5derefEv.exit.thread2.i31
    i32 -1, label %_ZN7QStringD2Ev.exit36
  ]

_ZN9QtPrivate8RefCount5derefEv.exit.i32:          ; preds = %_ZN7QStringD2Ev.exit30
  %40 = atomicrmw sub ptr %38, i32 1 seq_cst, align 4
  %.not.i33 = icmp eq i32 %40, 1
  br i1 %.not.i33, label %_ZN9QtPrivate8RefCount5derefEv.exit._ZN9QtPrivate8RefCount5derefEv.exit.thread2_crit_edge.i34, label %_ZN7QStringD2Ev.exit36

_ZN9QtPrivate8RefCount5derefEv.exit._ZN9QtPrivate8RefCount5derefEv.exit.thread2_crit_edge.i34: ; preds = %_ZN9QtPrivate8RefCount5derefEv.exit.i32
  %.pre.i35 = load ptr, ptr %8, align 8
  br label %_ZN9QtPrivate8RefCount5derefEv.exit.thread2.i31

_ZN9QtPrivate8RefCount5derefEv.exit.thread2.i31:  ; preds = %_ZN9QtPrivate8RefCount5derefEv.exit._ZN9QtPrivate8RefCount5derefEv.exit.thread2_crit_edge.i34, %_ZN7QStringD2Ev.exit30
  %41 = phi ptr [ %.pre.i35, %_ZN9QtPrivate8RefCount5derefEv.exit._ZN9QtPrivate8RefCount5derefEv.exit.thread2_crit_edge.i34 ], [ %38, %_ZN7QStringD2Ev.exit30 ]
  call void @_ZN10QArrayData10deallocateEPS_mm(ptr noundef %41, i64 noundef 2, i64 noundef 8) #25
  br label %_ZN7QStringD2Ev.exit36

_ZN7QStringD2Ev.exit36:                           ; preds = %_ZN7QStringD2Ev.exit30, %_ZN9QtPrivate8RefCount5derefEv.exit.i32, %_ZN9QtPrivate8RefCount5derefEv.exit.thread2.i31
  %42 = load ptr, ptr %7, align 8
  %43 = load atomic i32, ptr %42 monotonic, align 4
  switch i32 %43, label %_ZN9QtPrivate8RefCount5derefEv.exit.i38 [
    i32 0, label %_ZN9QtPrivate8RefCount5derefEv.exit.thread2.i37
    i32 -1, label %_ZN7QStringD2Ev.exit42
  ]

_ZN9QtPrivate8RefCount5derefEv.exit.i38:          ; preds = %_ZN7QStringD2Ev.exit36
  %44 = atomicrmw sub ptr %42, i32 1 seq_cst, align 4
  %.not.i39 = icmp eq i32 %44, 1
  br i1 %.not.i39, label %_ZN9QtPrivate8RefCount5derefEv.exit._ZN9QtPrivate8RefCount5derefEv.exit.thread2_crit_edge.i40, label %_ZN7QStringD2Ev.exit42

_ZN9QtPrivate8RefCount5derefEv.exit._ZN9QtPrivate8RefCount5derefEv.exit.thread2_crit_edge.i40: ; preds = %_ZN9QtPrivate8RefCount5derefEv.exit.i38
  %.pre.i41 = load ptr, ptr %7, align 8
  br label %_ZN9QtPrivate8RefCount5derefEv.exit.thread2.i37

_ZN9QtPrivate8RefCount5derefEv.exit.thread2.i37:  ; preds = %_ZN9QtPrivate8RefCount5derefEv.exit._ZN9QtPrivate8RefCount5derefEv.exit.thread2_crit_edge.i40, %_ZN7QStringD2Ev.exit36
  %45 = phi ptr [ %.pre.i41, %_ZN9QtPrivate8RefCount5derefEv.exit._ZN9QtPrivate8RefCount5derefEv.exit.thread2_crit_edge.i40 ], [ %42, %_ZN7QStringD2Ev.exit36 ]
  call void @_ZN10QArrayData10deallocateEPS_mm(ptr noundef %45, i64 noundef 2, i64 noundef 8) #25
  br label %_ZN7QStringD2Ev.exit42

46:                                               ; preds = %20, %3
  %47 = landingpad { ptr, i32 }
          cleanup
  br label %61

48:                                               ; preds = %_ZNKR7QString7toUpperEv.exit
  %49 = landingpad { ptr, i32 }
          cleanup
  call void @_ZN7QStringD2Ev(ptr noundef nonnull align 8 dereferenceable(8) %4) #25
  br label %61

50:                                               ; preds = %22
  %51 = landingpad { ptr, i32 }
          cleanup
  br label %60

52:                                               ; preds = %24
  %53 = landingpad { ptr, i32 }
          cleanup
  br label %59

54:                                               ; preds = %26
  %55 = landingpad { ptr, i32 }
          cleanup
  br label %58

56:                                               ; preds = %27
  %57 = landingpad { ptr, i32 }
          cleanup
  call void @_ZN8RichBoolD1Ev(ptr noundef nonnull align 8 dereferenceable(56) %6) #25
  br label %58

58:                                               ; preds = %56, %54
  %.pn = phi { ptr, i32 } [ %57, %56 ], [ %55, %54 ]
  call void @_ZN7QStringD2Ev(ptr noundef nonnull align 8 dereferenceable(8) %10) #25
  call void @_ZN7QStringD2Ev(ptr noundef nonnull align 8 dereferenceable(8) %9) #25
  br label %59

59:                                               ; preds = %58, %52
  %.pn.pn = phi { ptr, i32 } [ %.pn, %58 ], [ %53, %52 ]
  call void @_ZN7QStringD2Ev(ptr noundef nonnull align 8 dereferenceable(8) %8) #25
  br label %60

60:                                               ; preds = %59, %50
  %.pn.pn.pn = phi { ptr, i32 } [ %.pn.pn, %59 ], [ %51, %50 ]
  call void @_ZN7QStringD2Ev(ptr noundef nonnull align 8 dereferenceable(8) %7) #25
  br label %61

_ZN7QStringD2Ev.exit42:                           ; preds = %_ZN9QtPrivate8RefCount5derefEv.exit.thread2.i37, %_ZN9QtPrivate8RefCount5derefEv.exit.i38, %_ZN7QStringD2Ev.exit36, %_ZN7QStringD2Ev.exit16
  ret void

61:                                               ; preds = %60, %48, %46
  %.pn.pn.pn.pn = phi { ptr, i32 } [ %.pn.pn.pn, %60 ], [ %47, %46 ], [ %49, %48 ]
  call void @_ZN17RichParameterListD1Ev(ptr noundef nonnull align 8 dereferenceable(24) %0) #25
  resume { ptr, i32 } %.pn.pn.pn.pn
}